target datalayout = "e-m:e-p270:32:32-p271:32:32-p272:64:64-i64:64-i128:128-f80:128-n8:16:32:64-S128"
target triple = "x86_64-pc-linux-gnu"

%struct.pcre2_real_compile_context_8 = type { %struct.pcre2_memctl, ptr, ptr, ptr, i64, i64, i16, i16, i32, i32, i32, i32 }
%struct.pcre2_memctl = type { ptr, ptr, ptr }
%struct.pcre2_real_general_context_8 = type { %struct.pcre2_memctl }
%struct.pcre2_real_code_8 = type { %struct.pcre2_memctl, ptr, ptr, [32 x i8], i64, i64, i32, i32, i32, i32, i32, i32, i32, i32, i32, i32, i16, i16, i16, i16, i16, i16, i16, i16, i32 }
%struct.pcre2_serialized_data = type { i32, i32, i32, i32 }

@_pcre2_default_compile_context_8 = external global %struct.pcre2_real_compile_context_8, align 8

; Function Attrs: nounwind uwtable
define dso_local i32 @php_pcre2_serialize_encode(ptr noundef %0, i32 noundef %1, ptr noundef %2, ptr noundef %3, ptr noundef %4) #0 {
  %6 = alloca i32, align 4
  %7 = alloca ptr, align 8
  %8 = alloca i32, align 4
  %9 = alloca ptr, align 8
  %10 = alloca ptr, align 8
  %11 = alloca ptr, align 8
  %12 = alloca ptr, align 8
  %13 = alloca ptr, align 8
  %14 = alloca i32, align 4
  %15 = alloca i64, align 8
  %16 = alloca ptr, align 8
  %17 = alloca ptr, align 8
  %18 = alloca ptr, align 8
  %19 = alloca ptr, align 8
  %20 = alloca i32, align 4
  store ptr %0, ptr %7, align 8, !tbaa !4
  store i32 %1, ptr %8, align 4, !tbaa !9
  store ptr %2, ptr %9, align 8, !tbaa !11
  store ptr %3, ptr %10, align 8, !tbaa !13
  store ptr %4, ptr %11, align 8, !tbaa !15
  call void @llvm.lifetime.start.p0(i64 8, ptr %12) #5
  call void @llvm.lifetime.start.p0(i64 8, ptr %13) #5
  call void @llvm.lifetime.start.p0(i64 4, ptr %14) #5
  call void @llvm.lifetime.start.p0(i64 8, ptr %15) #5
  call void @llvm.lifetime.start.p0(i64 8, ptr %16) #5
  call void @llvm.lifetime.start.p0(i64 8, ptr %17) #5
  call void @llvm.lifetime.start.p0(i64 8, ptr %18) #5
  call void @llvm.lifetime.start.p0(i64 8, ptr %19) #5
  %21 = load ptr, ptr %11, align 8, !tbaa !15
  %22 = icmp ne ptr %21, null
  br i1 %22, label %23, label %26

23:                                               ; preds = %5
  %24 = load ptr, ptr %11, align 8, !tbaa !15
  %25 = getelementptr inbounds nuw %struct.pcre2_real_general_context_8, ptr %24, i32 0, i32 0
  br label %27

26:                                               ; preds = %5
  br label %27

27:                                               ; preds = %26, %23
  %28 = phi ptr [ %25, %23 ], [ @_pcre2_default_compile_context_8, %26 ]
  store ptr %28, ptr %19, align 8, !tbaa !17
  %29 = load ptr, ptr %7, align 8, !tbaa !4
  %30 = icmp eq ptr %29, null
  br i1 %30, label %37, label %31

31:                                               ; preds = %27
  %32 = load ptr, ptr %9, align 8, !tbaa !11
  %33 = icmp eq ptr %32, null
  br i1 %33, label %37, label %34

34:                                               ; preds = %31
  %35 = load ptr, ptr %10, align 8, !tbaa !13
  %36 = icmp eq ptr %35, null
  br i1 %36, label %37, label %38

37:                                               ; preds = %34, %31, %27
  store i32 -51, ptr %6, align 4
  store i32 1, ptr %20, align 4
  br label %160

38:                                               ; preds = %34
  %39 = load i32, ptr %8, align 4, !tbaa !9
  %40 = icmp sle i32 %39, 0
  br i1 %40, label %41, label %42

41:                                               ; preds = %38
  store i32 -29, ptr %6, align 4
  store i32 1, ptr %20, align 4
  br label %160

42:                                               ; preds = %38
  store i64 1104, ptr %15, align 8, !tbaa !19
  store ptr null, ptr %17, align 8, !tbaa !21
  store i32 0, ptr %14, align 4, !tbaa !9
  br label %43

43:                                               ; preds = %88, %42
  %44 = load i32, ptr %14, align 4, !tbaa !9
  %45 = load i32, ptr %8, align 4, !tbaa !9
  %46 = icmp slt i32 %44, %45
  br i1 %46, label %47, label %91

47:                                               ; preds = %43
  %48 = load ptr, ptr %7, align 8, !tbaa !4
  %49 = load i32, ptr %14, align 4, !tbaa !9
  %50 = sext i32 %49 to i64
  %51 = getelementptr inbounds ptr, ptr %48, i64 %50
  %52 = load ptr, ptr %51, align 8, !tbaa !23
  %53 = icmp eq ptr %52, null
  br i1 %53, label %54, label %55

54:                                               ; preds = %47
  store i32 -51, ptr %6, align 4
  store i32 1, ptr %20, align 4
  br label %160

55:                                               ; preds = %47
  %56 = load ptr, ptr %7, align 8, !tbaa !4
  %57 = load i32, ptr %14, align 4, !tbaa !9
  %58 = sext i32 %57 to i64
  %59 = getelementptr inbounds ptr, ptr %56, i64 %58
  %60 = load ptr, ptr %59, align 8, !tbaa !23
  store ptr %60, ptr %16, align 8, !tbaa !23
  %61 = load ptr, ptr %16, align 8, !tbaa !23
  %62 = getelementptr inbounds nuw %struct.pcre2_real_code_8, ptr %61, i32 0, i32 6
  %63 = load i32, ptr %62, align 8, !tbaa !25
  %64 = zext i32 %63 to i64
  %65 = icmp ne i64 %64, 1346589253
  br i1 %65, label %66, label %67

66:                                               ; preds = %55
  store i32 -31, ptr %6, align 4
  store i32 1, ptr %20, align 4
  br label %160

67:                                               ; preds = %55
  %68 = load ptr, ptr %17, align 8, !tbaa !21
  %69 = icmp eq ptr %68, null
  br i1 %69, label %70, label %74

70:                                               ; preds = %67
  %71 = load ptr, ptr %16, align 8, !tbaa !23
  %72 = getelementptr inbounds nuw %struct.pcre2_real_code_8, ptr %71, i32 0, i32 1
  %73 = load ptr, ptr %72, align 8, !tbaa !29
  store ptr %73, ptr %17, align 8, !tbaa !21
  br label %82

74:                                               ; preds = %67
  %75 = load ptr, ptr %17, align 8, !tbaa !21
  %76 = load ptr, ptr %16, align 8, !tbaa !23
  %77 = getelementptr inbounds nuw %struct.pcre2_real_code_8, ptr %76, i32 0, i32 1
  %78 = load ptr, ptr %77, align 8, !tbaa !29
  %79 = icmp ne ptr %75, %78
  br i1 %79, label %80, label %81

80:                                               ; preds = %74
  store i32 -30, ptr %6, align 4
  store i32 1, ptr %20, align 4
  br label %160

81:                                               ; preds = %74
  br label %82

82:                                               ; preds = %81, %70
  %83 = load ptr, ptr %16, align 8, !tbaa !23
  %84 = getelementptr inbounds nuw %struct.pcre2_real_code_8, ptr %83, i32 0, i32 4
  %85 = load i64, ptr %84, align 8, !tbaa !30
  %86 = load i64, ptr %15, align 8, !tbaa !19
  %87 = add i64 %86, %85
  store i64 %87, ptr %15, align 8, !tbaa !19
  br label %88

88:                                               ; preds = %82
  %89 = load i32, ptr %14, align 4, !tbaa !9
  %90 = add nsw i32 %89, 1
  store i32 %90, ptr %14, align 4, !tbaa !9
  br label %43

91:                                               ; preds = %43
  %92 = load ptr, ptr %19, align 8, !tbaa !17
  %93 = getelementptr inbounds nuw %struct.pcre2_memctl, ptr %92, i32 0, i32 0
  %94 = load ptr, ptr %93, align 8, !tbaa !31
  %95 = load i64, ptr %15, align 8, !tbaa !19
  %96 = add i64 %95, 24
  %97 = load ptr, ptr %19, align 8, !tbaa !17
  %98 = getelementptr inbounds nuw %struct.pcre2_memctl, ptr %97, i32 0, i32 2
  %99 = load ptr, ptr %98, align 8, !tbaa !32
  %100 = call ptr %94(i64 noundef %96, ptr noundef %99)
  store ptr %100, ptr %12, align 8, !tbaa !21
  %101 = load ptr, ptr %12, align 8, !tbaa !21
  %102 = icmp eq ptr %101, null
  br i1 %102, label %103, label %104

103:                                              ; preds = %91
  store i32 -48, ptr %6, align 4
  store i32 1, ptr %20, align 4
  br label %160

104:                                              ; preds = %91
  %105 = load ptr, ptr %12, align 8, !tbaa !21
  %106 = load ptr, ptr %19, align 8, !tbaa !17
  call void @llvm.memcpy.p0.p0.i64(ptr align 1 %105, ptr align 8 %106, i64 24, i1 false)
  %107 = load ptr, ptr %12, align 8, !tbaa !21
  %108 = getelementptr inbounds nuw i8, ptr %107, i64 24
  store ptr %108, ptr %12, align 8, !tbaa !21
  %109 = load ptr, ptr %12, align 8, !tbaa !21
  store ptr %109, ptr %18, align 8, !tbaa !33
  %110 = load ptr, ptr %18, align 8, !tbaa !33
  %111 = getelementptr inbounds nuw %struct.pcre2_serialized_data, ptr %110, i32 0, i32 0
  store i32 1347564115, ptr %111, align 4, !tbaa !35
  %112 = load ptr, ptr %18, align 8, !tbaa !33
  %113 = getelementptr inbounds nuw %struct.pcre2_serialized_data, ptr %112, i32 0, i32 1
  store i32 2949130, ptr %113, align 4, !tbaa !37
  %114 = load ptr, ptr %18, align 8, !tbaa !33
  %115 = getelementptr inbounds nuw %struct.pcre2_serialized_data, ptr %114, i32 0, i32 2
  store i32 526337, ptr %115, align 4, !tbaa !38
  %116 = load i32, ptr %8, align 4, !tbaa !9
  %117 = load ptr, ptr %18, align 8, !tbaa !33
  %118 = getelementptr inbounds nuw %struct.pcre2_serialized_data, ptr %117, i32 0, i32 3
  store i32 %116, ptr %118, align 4, !tbaa !39
  %119 = load ptr, ptr %12, align 8, !tbaa !21
  %120 = getelementptr inbounds nuw i8, ptr %119, i64 16
  store ptr %120, ptr %13, align 8, !tbaa !21
  %121 = load ptr, ptr %13, align 8, !tbaa !21
  %122 = load ptr, ptr %17, align 8, !tbaa !21
  call void @llvm.memcpy.p0.p0.i64(ptr align 1 %121, ptr align 1 %122, i64 1088, i1 false)
  %123 = load ptr, ptr %13, align 8, !tbaa !21
  %124 = getelementptr inbounds i8, ptr %123, i64 1088
  store ptr %124, ptr %13, align 8, !tbaa !21
  store i32 0, ptr %14, align 4, !tbaa !9
  br label %125

125:                                              ; preds = %151, %104
  %126 = load i32, ptr %14, align 4, !tbaa !9
  %127 = load i32, ptr %8, align 4, !tbaa !9
  %128 = icmp slt i32 %126, %127
  br i1 %128, label %129, label %154

129:                                              ; preds = %125
  %130 = load ptr, ptr %7, align 8, !tbaa !4
  %131 = load i32, ptr %14, align 4, !tbaa !9
  %132 = sext i32 %131 to i64
  %133 = getelementptr inbounds ptr, ptr %130, i64 %132
  %134 = load ptr, ptr %133, align 8, !tbaa !23
  store ptr %134, ptr %16, align 8, !tbaa !23
  %135 = load ptr, ptr %13, align 8, !tbaa !21
  %136 = load ptr, ptr %16, align 8, !tbaa !23
  %137 = load ptr, ptr %16, align 8, !tbaa !23
  %138 = getelementptr inbounds nuw %struct.pcre2_real_code_8, ptr %137, i32 0, i32 4
  %139 = load i64, ptr %138, align 8, !tbaa !30
  call void @llvm.memcpy.p0.p0.i64(ptr align 1 %135, ptr align 1 %136, i64 %139, i1 false)
  %140 = load ptr, ptr %13, align 8, !tbaa !21
  %141 = getelementptr inbounds nuw i8, ptr %140, i64 0
  call void @llvm.memset.p0.i64(ptr align 1 %141, i8 0, i64 24, i1 false)
  %142 = load ptr, ptr %13, align 8, !tbaa !21
  %143 = getelementptr inbounds nuw i8, ptr %142, i64 24
  call void @llvm.memset.p0.i64(ptr align 1 %143, i8 0, i64 8, i1 false)
  %144 = load ptr, ptr %13, align 8, !tbaa !21
  %145 = getelementptr inbounds nuw i8, ptr %144, i64 32
  call void @llvm.memset.p0.i64(ptr align 1 %145, i8 0, i64 8, i1 false)
  %146 = load ptr, ptr %16, align 8, !tbaa !23
  %147 = getelementptr inbounds nuw %struct.pcre2_real_code_8, ptr %146, i32 0, i32 4
  %148 = load i64, ptr %147, align 8, !tbaa !30
  %149 = load ptr, ptr %13, align 8, !tbaa !21
  %150 = getelementptr inbounds nuw i8, ptr %149, i64 %148
  store ptr %150, ptr %13, align 8, !tbaa !21
  br label %151

151:                                              ; preds = %129
  %152 = load i32, ptr %14, align 4, !tbaa !9
  %153 = add nsw i32 %152, 1
  store i32 %153, ptr %14, align 4, !tbaa !9
  br label %125

154:                                              ; preds = %125
  %155 = load ptr, ptr %12, align 8, !tbaa !21
  %156 = load ptr, ptr %9, align 8, !tbaa !11
  store ptr %155, ptr %156, align 8, !tbaa !21
  %157 = load i64, ptr %15, align 8, !tbaa !19
  %158 = load ptr, ptr %10, align 8, !tbaa !13
  store i64 %157, ptr %158, align 8, !tbaa !19
  %159 = load i32, ptr %8, align 4, !tbaa !9
  store i32 %159, ptr %6, align 4
  store i32 1, ptr %20, align 4
  br label %160

160:                                              ; preds = %154, %103, %80, %66, %54, %41, %37
  call void @llvm.lifetime.end.p0(i64 8, ptr %19) #5
  call void @llvm.lifetime.end.p0(i64 8, ptr %18) #5
  call void @llvm.lifetime.end.p0(i64 8, ptr %17) #5
  call void @llvm.lifetime.end.p0(i64 8, ptr %16) #5
  call void @llvm.lifetime.end.p0(i64 8, ptr %15) #5
  call void @llvm.lifetime.end.p0(i64 4, ptr %14) #5
  call void @llvm.lifetime.end.p0(i64 8, ptr %13) #5
  call void @llvm.lifetime.end.p0(i64 8, ptr %12) #5
  %161 = load i32, ptr %6, align 4
  ret i32 %161
}