; Function Attrs: nounwind uwtable
define dso_local range(i32 -51, -2147483648) i32 @php_pcre2_serialize_encode(ptr noundef readonly captures(address_is_null) %0, i32 noundef %1, ptr noundef writeonly captures(address_is_null) %2, ptr noundef writeonly captures(address_is_null) %3, ptr noundef readonly captures(address_is_null) %4) local_unnamed_addr #0 {
  %.not = icmp eq ptr %4, null
  %6 = select i1 %.not, ptr @_pcre2_default_compile_context_8, ptr %4
  %7 = icmp eq ptr %0, null
  %8 = icmp eq ptr %2, null
  %or.cond = or i1 %7, %8
  %9 = icmp eq ptr %3, null
  %or.cond3 = or i1 %or.cond, %9
  br i1 %or.cond3, label %.loopexit, label %10

10:                                               ; preds = %5
  %11 = icmp slt i32 %1, 1
  br i1 %11, label %.loopexit, label %.preheader.preheader

.preheader.preheader:                             ; preds = %10
  %wide.trip.count = zext nneg i32 %1 to i64
  br label %.preheader

.preheader:                                       ; preds = %.preheader.preheader, %23
  %indvars.iv = phi i64 [ 0, %.preheader.preheader ], [ %indvars.iv.next, %23 ]
  %.05875 = phi ptr [ null, %.preheader.preheader ], [ %.1, %23 ]
  %.05974 = phi i64 [ 1104, %.preheader.preheader ], [ %26, %23 ]
  %12 = getelementptr inbounds nuw ptr, ptr %0, i64 %indvars.iv
  %13 = load ptr, ptr %12, align 8, !tbaa !4
  %14 = icmp eq ptr %13, null
  br i1 %14, label %.loopexit, label %15

15:                                               ; preds = %.preheader
  %16 = getelementptr inbounds nuw i8, ptr %13, i64 88
  %17 = load i32, ptr %16, align 8, !tbaa !9
  %.not69 = icmp eq i32 %17, 1346589253
  br i1 %.not69, label %18, label %.loopexit

18:                                               ; preds = %15
  %19 = icmp eq ptr %.05875, null
  %20 = getelementptr inbounds nuw i8, ptr %13, i64 24
  %21 = load ptr, ptr %20, align 8, !tbaa !16
  br i1 %19, label %23, label %22

22:                                               ; preds = %18
  %.not70 = icmp eq ptr %.05875, %21
  br i1 %.not70, label %23, label %.loopexit

23:                                               ; preds = %18, %22
  %.1 = phi ptr [ %.05875, %22 ], [ %21, %18 ]
  %24 = getelementptr inbounds nuw i8, ptr %13, i64 72
  %25 = load i64, ptr %24, align 8, !tbaa !17
  %26 = add i64 %25, %.05974
  %indvars.iv.next = add nuw nsw i64 %indvars.iv, 1
  %exitcond.not = icmp eq i64 %indvars.iv.next, %wide.trip.count
  br i1 %exitcond.not, label %27, label %.preheader

27:                                               ; preds = %23
  %28 = load ptr, ptr %6, align 8, !tbaa !18
  %29 = add i64 %26, 24
  %30 = getelementptr inbounds nuw i8, ptr %6, i64 16
  %31 = load ptr, ptr %30, align 8, !tbaa !19
  %32 = tail call ptr %28(i64 noundef %29, ptr noundef %31) #6
  %33 = icmp eq ptr %32, null
  br i1 %33, label %.loopexit, label %.lr.ph.preheader

.lr.ph.preheader:                                 ; preds = %27
  tail call void @llvm.memcpy.p0.p0.i64(ptr noundef nonnull align 1 dereferenceable(24) %32, ptr noundef nonnull align 8 dereferenceable(24) %6, i64 24, i1 false)
  %34 = getelementptr inbounds nuw i8, ptr %32, i64 24
  store i32 1347564115, ptr %34, align 4, !tbaa !20
  %35 = getelementptr inbounds nuw i8, ptr %32, i64 28
  store i32 2949130, ptr %35, align 4, !tbaa !22
  %36 = getelementptr inbounds nuw i8, ptr %32, i64 32
  store i32 526337, ptr %36, align 4, !tbaa !23
  %37 = getelementptr inbounds nuw i8, ptr %32, i64 36
  store i32 %1, ptr %37, align 4, !tbaa !24
  %38 = getelementptr inbounds nuw i8, ptr %32, i64 40
  tail call void @llvm.memcpy.p0.p0.i64(ptr noundef nonnull align 1 dereferenceable(1088) %38, ptr noundef nonnull align 1 dereferenceable(1088) %.1, i64 1088, i1 false)
  %39 = getelementptr inbounds nuw i8, ptr %32, i64 1128
  br label %.lr.ph

.lr.ph:                                           ; preds = %.lr.ph.preheader, %.lr.ph
  %indvars.iv79 = phi i64 [ 0, %.lr.ph.preheader ], [ %indvars.iv.next80, %.lr.ph ]
  %.06276 = phi ptr [ %39, %.lr.ph.preheader ], [ %45, %.lr.ph ]
  %40 = getelementptr inbounds nuw ptr, ptr %0, i64 %indvars.iv79
  %41 = load ptr, ptr %40, align 8, !tbaa !4
  %42 = getelementptr inbounds nuw i8, ptr %41, i64 72
  %43 = load i64, ptr %42, align 8, !tbaa !17
  tail call void @llvm.memcpy.p0.p0.i64(ptr nonnull align 1 %.06276, ptr align 1 %41, i64 %43, i1 false)
  tail call void @llvm.memset.p0.i64(ptr noundef nonnull align 1 dereferenceable(40) %.06276, i8 0, i64 40, i1 false)
  %44 = load i64, ptr %42, align 8, !tbaa !17
  %45 = getelementptr inbounds nuw i8, ptr %.06276, i64 %44
  %indvars.iv.next80 = add nuw nsw i64 %indvars.iv79, 1
  %exitcond83.not = icmp eq i64 %indvars.iv.next80, %wide.trip.count
  br i1 %exitcond83.not, label %._crit_edge, label %.lr.ph

._crit_edge:                                      ; preds = %.lr.ph
  store ptr %34, ptr %2, align 8, !tbaa !25
  store i64 %26, ptr %3, align 8, !tbaa !26
  br label %.loopexit

.loopexit:                                        ; preds = %22, %15, %.preheader, %27, %10, %5, %._crit_edge
  %.0 = phi i32 [ %1, %._crit_edge ], [ -51, %5 ], [ -29, %10 ], [ -48, %27 ], [ -30, %22 ], [ -31, %15 ], [ -51, %.preheader ]
  ret i32 %.0
}